; Function Attrs: mustprogress nounwind uwtable
define dso_local void @_ZN4base9SampleMapD2Ev(ptr noundef nonnull align 8 dereferenceable(88) %this) unnamed_addr #2 align 2 personality ptr @__gxx_personality_v0 {
entry:
  store ptr getelementptr inbounds ({ [13 x ptr] }, ptr @_ZTVN4base9SampleMapE, i64 0, i32 0, i64 2), ptr %this, align 8
  %sample_counts_ = getelementptr inbounds i8, ptr %this, i64 40
  %_M_parent.i.i.i.i = getelementptr inbounds i8, ptr %this, i64 56
  %0 = load ptr, ptr %_M_parent.i.i.i.i, align 8
  invoke void @_ZNSt8_Rb_treeIiSt4pairIKiiESt10_Select1stIS2_ESt4lessIiESaIS2_EE8_M_eraseEPSt13_Rb_tree_nodeIS2_E(ptr noundef nonnull align 8 dereferenceable(48) %sample_counts_, ptr noundef %0)
          to label %_ZNSt3mapIiiSt4lessIiESaISt4pairIKiiEEED2Ev.exit unwind label %terminate.lpad.i.i

terminate.lpad.i.i:                               ; preds = %entry
  %1 = landingpad { ptr, i32 }
          catch ptr null
  %2 = extractvalue { ptr, i32 } %1, 0
  tail call void @__clang_call_terminate(ptr %2) #12
  unreachable

_ZNSt3mapIiiSt4lessIiESaISt4pairIKiiEEED2Ev.exit: ; preds = %entry
  tail call void @_ZN4base16HistogramSamplesD2Ev(ptr noundef nonnull align 8 dereferenceable(40) %this) #13
  ret void
}